target datalayout = "e-m:e-p270:32:32-p271:32:32-p272:64:64-i64:64-i128:128-f80:128-n8:16:32:64-S128"
target triple = "x86_64-pc-linux-gnu"

%struct._stat_tap_table_ui = type { i32, ptr, ptr, ptr, ptr, ptr, ptr, ptr, ptr, i64, ptr, i64, ptr, ptr, i32 }
%struct._value_string = type { i32, ptr }
%struct._stat_tap_table_item_type = type { i32, %union.anon, %union.anon.0 }
%union.anon = type { ptr }
%union.anon.0 = type { ptr }
%struct._tap_componentstatusprotocol_rec_t = type { i8, i16, ptr }
%struct._stat_data_t = type { ptr, ptr }
%struct._GArray = type { ptr, i32 }
%struct._packet_info = type { ptr, ptr, i32, i32, %struct.nstime_t, %struct.nstime_t, %struct.nstime_t, i32, ptr, ptr, ptr, ptr, %struct._address, %struct._address, %struct._address, %struct._address, %struct._address, %struct._address, i32, ptr, i32, %struct.anon, i32, i32, i32, i32, ptr, i32, ptr, ptr, i16, i16, i32, i32, i16, i32, i32, ptr, ptr, ptr, i8, i8, i16, i16, i16, i32, i16, i16, ptr, ptr, ptr, ptr, ptr, i32 }
%struct.nstime_t = type { i64, i32 }
%struct._address = type { i32, i32, ptr, ptr }
%struct.anon = type { i8, [3 x i8] }

@message_type_values = internal constant [2 x %struct._value_string] [%struct._value_string { i32 1, ptr @.str.8 }, %struct._value_string zeroinitializer], align 16
@componentstatusprotocol_total_msgs = internal global i64 0, align 8
@componentstatusprotocol_total_bytes = internal global i64 0, align 8

; Function Attrs: nounwind uwtable
define internal i32 @componentstatusprotocol_stat_packet(ptr noundef %0, ptr noundef %1, ptr noundef %2, ptr noundef %3, i32 noundef %4) #0 {
  %6 = alloca i32, align 4
  %7 = alloca ptr, align 8
  %8 = alloca ptr, align 8
  %9 = alloca ptr, align 8
  %10 = alloca ptr, align 8
  %11 = alloca i32, align 4
  %12 = alloca ptr, align 8
  %13 = alloca ptr, align 8
  %14 = alloca ptr, align 8
  %15 = alloca ptr, align 8
  %16 = alloca i32, align 4
  %17 = alloca i64, align 8
  %18 = alloca i64, align 8
  %19 = alloca i32, align 4
  %20 = alloca double, align 8
  %21 = alloca double, align 8
  %22 = alloca i32, align 4
  %23 = alloca i32, align 4
  store ptr %0, ptr %7, align 8
  store ptr %1, ptr %8, align 8
  store ptr %2, ptr %9, align 8
  store ptr %3, ptr %10, align 8
  store i32 %4, ptr %11, align 4
  %24 = load ptr, ptr %7, align 8
  store ptr %24, ptr %12, align 8
  %25 = load ptr, ptr %10, align 8
  store ptr %25, ptr %13, align 8
  store i32 0, ptr %19, align 4
  store double -1.000000e+00, ptr %20, align 8
  store double -1.000000e+00, ptr %21, align 8
  %26 = load ptr, ptr %13, align 8
  %27 = getelementptr inbounds %struct._tap_componentstatusprotocol_rec_t, ptr %26, i32 0, i32 2
  %28 = load ptr, ptr %27, align 8
  %29 = call i32 @str_to_val_idx(ptr noundef %28, ptr noundef @message_type_values)
  store i32 %29, ptr %16, align 4
  %30 = load i32, ptr %16, align 4
  %31 = icmp slt i32 %30, 0
  br i1 %31, label %32, label %33

32:                                               ; preds = %5
  store i32 0, ptr %6, align 4
  br label %263

33:                                               ; preds = %5
  %34 = load ptr, ptr %12, align 8
  %35 = getelementptr inbounds %struct._stat_data_t, ptr %34, i32 0, i32 0
  %36 = load ptr, ptr %35, align 8
  %37 = getelementptr inbounds %struct._stat_tap_table_ui, ptr %36, i32 0, i32 13
  %38 = load ptr, ptr %37, align 8
  %39 = getelementptr inbounds %struct._GArray, ptr %38, i32 0, i32 0
  %40 = load ptr, ptr %39, align 8
  %41 = getelementptr ptr, ptr %40, i64 0
  %42 = load ptr, ptr %41, align 8
  store ptr %42, ptr %14, align 8
  %43 = load i64, ptr @componentstatusprotocol_total_msgs, align 8
  %44 = add i64 %43, 1
  store i64 %44, ptr @componentstatusprotocol_total_msgs, align 8
  %45 = load ptr, ptr %14, align 8
  %46 = load i32, ptr %16, align 4
  %47 = call ptr @stat_tap_get_field_data(ptr noundef %45, i32 noundef %46, i32 noundef 1)
  store ptr %47, ptr %15, align 8
  %48 = load ptr, ptr %15, align 8
  %49 = getelementptr inbounds %struct._stat_tap_table_item_type, ptr %48, i32 0, i32 1
  %50 = load i32, ptr %49, align 8
  %51 = add i32 %50, 1
  store i32 %51, ptr %49, align 8
  %52 = load ptr, ptr %15, align 8
  %53 = getelementptr inbounds %struct._stat_tap_table_item_type, ptr %52, i32 0, i32 1
  %54 = load i32, ptr %53, align 8
  %55 = zext i32 %54 to i64
  store i64 %55, ptr %17, align 8
  %56 = load ptr, ptr %14, align 8
  %57 = load i32, ptr %16, align 4
  %58 = load ptr, ptr %15, align 8
  call void @stat_tap_set_field_data(ptr noundef %56, i32 noundef %57, i32 noundef 1, ptr noundef %58)
  %59 = load ptr, ptr %13, align 8
  %60 = getelementptr inbounds %struct._tap_componentstatusprotocol_rec_t, ptr %59, i32 0, i32 1
  %61 = load i16, ptr %60, align 2
  %62 = zext i16 %61 to i64
  %63 = load i64, ptr @componentstatusprotocol_total_bytes, align 8
  %64 = add i64 %63, %62
  store i64 %64, ptr @componentstatusprotocol_total_bytes, align 8
  %65 = load ptr, ptr %14, align 8
  %66 = load i32, ptr %16, align 4
  %67 = call ptr @stat_tap_get_field_data(ptr noundef %65, i32 noundef %66, i32 noundef 3)
  store ptr %67, ptr %15, align 8
  %68 = load ptr, ptr %13, align 8
  %69 = getelementptr inbounds %struct._tap_componentstatusprotocol_rec_t, ptr %68, i32 0, i32 1
  %70 = load i16, ptr %69, align 2
  %71 = zext i16 %70 to i32
  %72 = load ptr, ptr %15, align 8
  %73 = getelementptr inbounds %struct._stat_tap_table_item_type, ptr %72, i32 0, i32 1
  %74 = load i32, ptr %73, align 8
  %75 = add i32 %74, %71
  store i32 %75, ptr %73, align 8
  %76 = load ptr, ptr %15, align 8
  %77 = getelementptr inbounds %struct._stat_tap_table_item_type, ptr %76, i32 0, i32 1
  %78 = load i32, ptr %77, align 8
  %79 = zext i32 %78 to i64
  store i64 %79, ptr %18, align 8
  %80 = load ptr, ptr %14, align 8
  %81 = load i32, ptr %16, align 4
  %82 = load ptr, ptr %15, align 8
  call void @stat_tap_set_field_data(ptr noundef %80, i32 noundef %81, i32 noundef 3, ptr noundef %82)
  br label %83

83:                                               ; preds = %90, %33
  %84 = load i32, ptr %19, align 4
  %85 = sext i32 %84 to i64
  %86 = getelementptr [2 x %struct._value_string], ptr @message_type_values, i64 0, i64 %85
  %87 = getelementptr inbounds %struct._value_string, ptr %86, i32 0, i32 1
  %88 = load ptr, ptr %87, align 8
  %89 = icmp ne ptr %88, null
  br i1 %89, label %90, label %137

90:                                               ; preds = %83
  %91 = load ptr, ptr %14, align 8
  %92 = load i32, ptr %19, align 4
  %93 = call ptr @stat_tap_get_field_data(ptr noundef %91, i32 noundef %92, i32 noundef 1)
  store ptr %93, ptr %15, align 8
  %94 = load ptr, ptr %15, align 8
  %95 = getelementptr inbounds %struct._stat_tap_table_item_type, ptr %94, i32 0, i32 1
  %96 = load i32, ptr %95, align 8
  store i32 %96, ptr %22, align 4
  %97 = load ptr, ptr %14, align 8
  %98 = load i32, ptr %19, align 4
  %99 = call ptr @stat_tap_get_field_data(ptr noundef %97, i32 noundef %98, i32 noundef 3)
  store ptr %99, ptr %15, align 8
  %100 = load ptr, ptr %15, align 8
  %101 = getelementptr inbounds %struct._stat_tap_table_item_type, ptr %100, i32 0, i32 1
  %102 = load i32, ptr %101, align 8
  store i32 %102, ptr %23, align 4
  %103 = load ptr, ptr %14, align 8
  %104 = load i32, ptr %19, align 4
  %105 = call ptr @stat_tap_get_field_data(ptr noundef %103, i32 noundef %104, i32 noundef 2)
  store ptr %105, ptr %15, align 8
  %106 = load ptr, ptr %15, align 8
  %107 = getelementptr inbounds %struct._stat_tap_table_item_type, ptr %106, i32 0, i32 0
  store i32 4, ptr %107, align 8
  %108 = load i32, ptr %22, align 4
  %109 = uitofp i32 %108 to double
  %110 = fmul double 1.000000e+02, %109
  %111 = load i64, ptr @componentstatusprotocol_total_msgs, align 8
  %112 = uitofp i64 %111 to double
  %113 = fdiv double %110, %112
  %114 = load ptr, ptr %15, align 8
  %115 = getelementptr inbounds %struct._stat_tap_table_item_type, ptr %114, i32 0, i32 1
  store double %113, ptr %115, align 8
  %116 = load ptr, ptr %14, align 8
  %117 = load i32, ptr %19, align 4
  %118 = load ptr, ptr %15, align 8
  call void @stat_tap_set_field_data(ptr noundef %116, i32 noundef %117, i32 noundef 2, ptr noundef %118)
  %119 = load ptr, ptr %14, align 8
  %120 = load i32, ptr %19, align 4
  %121 = call ptr @stat_tap_get_field_data(ptr noundef %119, i32 noundef %120, i32 noundef 4)
  store ptr %121, ptr %15, align 8
  %122 = load ptr, ptr %15, align 8
  %123 = getelementptr inbounds %struct._stat_tap_table_item_type, ptr %122, i32 0, i32 0
  store i32 4, ptr %123, align 8
  %124 = load i32, ptr %23, align 4
  %125 = uitofp i32 %124 to double
  %126 = fmul double 1.000000e+02, %125
  %127 = load i64, ptr @componentstatusprotocol_total_bytes, align 8
  %128 = uitofp i64 %127 to double
  %129 = fdiv double %126, %128
  %130 = load ptr, ptr %15, align 8
  %131 = getelementptr inbounds %struct._stat_tap_table_item_type, ptr %130, i32 0, i32 1
  store double %129, ptr %131, align 8
  %132 = load ptr, ptr %14, align 8
  %133 = load i32, ptr %19, align 4
  %134 = load ptr, ptr %15, align 8
  call void @stat_tap_set_field_data(ptr noundef %132, i32 noundef %133, i32 noundef 4, ptr noundef %134)
  %135 = load i32, ptr %19, align 4
  %136 = add i32 %135, 1
  store i32 %136, ptr %19, align 4
  br label %83, !llvm.loop !6

137:                                              ; preds = %83
  %138 = load ptr, ptr %8, align 8
  %139 = getelementptr inbounds %struct._packet_info, ptr %138, i32 0, i32 2
  %140 = load i32, ptr %139, align 8
  %141 = and i32 %140, 1
  %142 = icmp ne i32 %141, 0
  br i1 %142, label %143, label %174

143:                                              ; preds = %137
  %144 = load ptr, ptr %14, align 8
  %145 = load i32, ptr %16, align 4
  %146 = call ptr @stat_tap_get_field_data(ptr noundef %144, i32 noundef %145, i32 noundef 5)
  store ptr %146, ptr %15, align 8
  %147 = load ptr, ptr %15, align 8
  %148 = getelementptr inbounds %struct._stat_tap_table_item_type, ptr %147, i32 0, i32 0
  store i32 4, ptr %148, align 8
  %149 = load ptr, ptr %15, align 8
  %150 = getelementptr inbounds %struct._stat_tap_table_item_type, ptr %149, i32 0, i32 1
  %151 = load double, ptr %150, align 8
  %152 = load ptr, ptr %8, align 8
  %153 = getelementptr inbounds %struct._packet_info, ptr %152, i32 0, i32 5
  %154 = call double @nstime_to_sec(ptr noundef %153)
  %155 = fcmp olt double %151, %154
  br i1 %155, label %156, label %160

156:                                              ; preds = %143
  %157 = load ptr, ptr %15, align 8
  %158 = getelementptr inbounds %struct._stat_tap_table_item_type, ptr %157, i32 0, i32 1
  %159 = load double, ptr %158, align 8
  br label %164

160:                                              ; preds = %143
  %161 = load ptr, ptr %8, align 8
  %162 = getelementptr inbounds %struct._packet_info, ptr %161, i32 0, i32 5
  %163 = call double @nstime_to_sec(ptr noundef %162)
  br label %164

164:                                              ; preds = %160, %156
  %165 = phi double [ %159, %156 ], [ %163, %160 ]
  %166 = load ptr, ptr %15, align 8
  %167 = getelementptr inbounds %struct._stat_tap_table_item_type, ptr %166, i32 0, i32 1
  store double %165, ptr %167, align 8
  %168 = load ptr, ptr %15, align 8
  %169 = getelementptr inbounds %struct._stat_tap_table_item_type, ptr %168, i32 0, i32 1
  %170 = load double, ptr %169, align 8
  store double %170, ptr %20, align 8
  %171 = load ptr, ptr %14, align 8
  %172 = load i32, ptr %16, align 4
  %173 = load ptr, ptr %15, align 8
  call void @stat_tap_set_field_data(ptr noundef %171, i32 noundef %172, i32 noundef 5, ptr noundef %173)
  br label %174

174:                                              ; preds = %164, %137
  %175 = load ptr, ptr %8, align 8
  %176 = getelementptr inbounds %struct._packet_info, ptr %175, i32 0, i32 2
  %177 = load i32, ptr %176, align 8
  %178 = and i32 %177, 1
  %179 = icmp ne i32 %178, 0
  br i1 %179, label %180, label %211

180:                                              ; preds = %174
  %181 = load ptr, ptr %14, align 8
  %182 = load i32, ptr %16, align 4
  %183 = call ptr @stat_tap_get_field_data(ptr noundef %181, i32 noundef %182, i32 noundef 6)
  store ptr %183, ptr %15, align 8
  %184 = load ptr, ptr %15, align 8
  %185 = getelementptr inbounds %struct._stat_tap_table_item_type, ptr %184, i32 0, i32 0
  store i32 4, ptr %185, align 8
  %186 = load ptr, ptr %15, align 8
  %187 = getelementptr inbounds %struct._stat_tap_table_item_type, ptr %186, i32 0, i32 1
  %188 = load double, ptr %187, align 8
  %189 = load ptr, ptr %8, align 8
  %190 = getelementptr inbounds %struct._packet_info, ptr %189, i32 0, i32 5
  %191 = call double @nstime_to_sec(ptr noundef %190)
  %192 = fcmp ogt double %188, %191
  br i1 %192, label %193, label %197

193:                                              ; preds = %180
  %194 = load ptr, ptr %15, align 8
  %195 = getelementptr inbounds %struct._stat_tap_table_item_type, ptr %194, i32 0, i32 1
  %196 = load double, ptr %195, align 8
  br label %201

197:                                              ; preds = %180
  %198 = load ptr, ptr %8, align 8
  %199 = getelementptr inbounds %struct._packet_info, ptr %198, i32 0, i32 5
  %200 = call double @nstime_to_sec(ptr noundef %199)
  br label %201

201:                                              ; preds = %197, %193
  %202 = phi double [ %196, %193 ], [ %200, %197 ]
  %203 = load ptr, ptr %15, align 8
  %204 = getelementptr inbounds %struct._stat_tap_table_item_type, ptr %203, i32 0, i32 1
  store double %202, ptr %204, align 8
  %205 = load ptr, ptr %15, align 8
  %206 = getelementptr inbounds %struct._stat_tap_table_item_type, ptr %205, i32 0, i32 1
  %207 = load double, ptr %206, align 8
  store double %207, ptr %21, align 8
  %208 = load ptr, ptr %14, align 8
  %209 = load i32, ptr %16, align 4
  %210 = load ptr, ptr %15, align 8
  call void @stat_tap_set_field_data(ptr noundef %208, i32 noundef %209, i32 noundef 6, ptr noundef %210)
  br label %211

211:                                              ; preds = %201, %174
  %212 = load double, ptr %21, align 8
  %213 = load double, ptr %20, align 8
  %214 = fsub double %212, %213
  %215 = fcmp ogt double %214, 0.000000e+00
  br i1 %215, label %216, label %262

216:                                              ; preds = %211
  %217 = load ptr, ptr %14, align 8
  %218 = load i32, ptr %16, align 4
  %219 = call ptr @stat_tap_get_field_data(ptr noundef %217, i32 noundef %218, i32 noundef 7)
  store ptr %219, ptr %15, align 8
  %220 = load ptr, ptr %15, align 8
  %221 = getelementptr inbounds %struct._stat_tap_table_item_type, ptr %220, i32 0, i32 0
  store i32 4, ptr %221, align 8
  %222 = load double, ptr %21, align 8
  %223 = load double, ptr %20, align 8
  %224 = fsub double %222, %223
  %225 = load ptr, ptr %15, align 8
  %226 = getelementptr inbounds %struct._stat_tap_table_item_type, ptr %225, i32 0, i32 1
  store double %224, ptr %226, align 8
  %227 = load ptr, ptr %14, align 8
  %228 = load i32, ptr %16, align 4
  %229 = load ptr, ptr %15, align 8
  call void @stat_tap_set_field_data(ptr noundef %227, i32 noundef %228, i32 noundef 7, ptr noundef %229)
  %230 = load ptr, ptr %14, align 8
  %231 = load i32, ptr %16, align 4
  %232 = call ptr @stat_tap_get_field_data(ptr noundef %230, i32 noundef %231, i32 noundef 8)
  store ptr %232, ptr %15, align 8
  %233 = load ptr, ptr %15, align 8
  %234 = getelementptr inbounds %struct._stat_tap_table_item_type, ptr %233, i32 0, i32 0
  store i32 4, ptr %234, align 8
  %235 = load i64, ptr %17, align 8
  %236 = uitofp i64 %235 to double
  %237 = load double, ptr %21, align 8
  %238 = load double, ptr %20, align 8
  %239 = fsub double %237, %238
  %240 = fdiv double %236, %239
  %241 = load ptr, ptr %15, align 8
  %242 = getelementptr inbounds %struct._stat_tap_table_item_type, ptr %241, i32 0, i32 1
  store double %240, ptr %242, align 8
  %243 = load ptr, ptr %14, align 8
  %244 = load i32, ptr %16, align 4
  %245 = load ptr, ptr %15, align 8
  call void @stat_tap_set_field_data(ptr noundef %243, i32 noundef %244, i32 noundef 8, ptr noundef %245)
  %246 = load ptr, ptr %14, align 8
  %247 = load i32, ptr %16, align 4
  %248 = call ptr @stat_tap_get_field_data(ptr noundef %246, i32 noundef %247, i32 noundef 9)
  store ptr %248, ptr %15, align 8
  %249 = load ptr, ptr %15, align 8
  %250 = getelementptr inbounds %struct._stat_tap_table_item_type, ptr %249, i32 0, i32 0
  store i32 4, ptr %250, align 8
  %251 = load i64, ptr %18, align 8
  %252 = uitofp i64 %251 to double
  %253 = load double, ptr %21, align 8
  %254 = load double, ptr %20, align 8
  %255 = fsub double %253, %254
  %256 = fdiv double %252, %255
  %257 = load ptr, ptr %15, align 8
  %258 = getelementptr inbounds %struct._stat_tap_table_item_type, ptr %257, i32 0, i32 1
  store double %256, ptr %258, align 8
  %259 = load ptr, ptr %14, align 8
  %260 = load i32, ptr %16, align 4
  %261 = load ptr, ptr %15, align 8
  call void @stat_tap_set_field_data(ptr noundef %259, i32 noundef %260, i32 noundef 9, ptr noundef %261)
  br label %262

262:                                              ; preds = %216, %211
  store i32 1, ptr %6, align 4
  br label %263

263:                                              ; preds = %262, %32
  %264 = load i32, ptr %6, align 4
  ret i32 %264
}