; Function Attrs: nounwind uwtable
define internal range(i32 0, 2) i32 @componentstatusprotocol_stat_packet(ptr noundef readonly captures(none) %0, ptr noundef %1, ptr readnone captures(none) %2, ptr noundef readonly captures(none) %3, i32 %4) #0 {
  %6 = getelementptr inbounds nuw i8, ptr %3, i64 8
  %7 = load ptr, ptr %6, align 8
  %8 = tail call i32 @str_to_val_idx(ptr noundef %7, ptr noundef nonnull @message_type_values) #4
  %9 = icmp slt i32 %8, 0
  br i1 %9, label %96, label %10

10:                                               ; preds = %5
  %11 = load ptr, ptr %0, align 8
  %12 = getelementptr inbounds nuw i8, ptr %11, i64 104
  %13 = load ptr, ptr %12, align 8
  %14 = load ptr, ptr %13, align 8
  %15 = load ptr, ptr %14, align 8
  %16 = load i64, ptr @componentstatusprotocol_total_msgs, align 8
  %17 = add i64 %16, 1
  store i64 %17, ptr @componentstatusprotocol_total_msgs, align 8
  %18 = tail call ptr @stat_tap_get_field_data(ptr noundef %15, i32 noundef %8, i32 noundef 1) #4
  %19 = getelementptr inbounds nuw i8, ptr %18, i64 8
  %20 = load i32, ptr %19, align 8
  %21 = add i32 %20, 1
  store i32 %21, ptr %19, align 8
  tail call void @stat_tap_set_field_data(ptr noundef %15, i32 noundef %8, i32 noundef 1, ptr noundef %18) #4
  %22 = getelementptr inbounds nuw i8, ptr %3, i64 2
  %23 = load i16, ptr %22, align 2
  %24 = zext i16 %23 to i64
  %25 = load i64, ptr @componentstatusprotocol_total_bytes, align 8
  %26 = add i64 %25, %24
  store i64 %26, ptr @componentstatusprotocol_total_bytes, align 8
  %27 = tail call ptr @stat_tap_get_field_data(ptr noundef %15, i32 noundef %8, i32 noundef 3) #4
  %28 = load i16, ptr %22, align 2
  %29 = zext i16 %28 to i32
  %30 = getelementptr inbounds nuw i8, ptr %27, i64 8
  %31 = load i32, ptr %30, align 8
  %32 = add i32 %31, %29
  store i32 %32, ptr %30, align 8
  tail call void @stat_tap_set_field_data(ptr noundef %15, i32 noundef %8, i32 noundef 3, ptr noundef %27) #4
  %33 = tail call ptr @stat_tap_get_field_data(ptr noundef %15, i32 noundef 0, i32 noundef 1) #4
  %34 = getelementptr inbounds nuw i8, ptr %33, i64 8
  %35 = load i32, ptr %34, align 8
  %36 = tail call ptr @stat_tap_get_field_data(ptr noundef %15, i32 noundef 0, i32 noundef 3) #4
  %37 = getelementptr inbounds nuw i8, ptr %36, i64 8
  %38 = load i32, ptr %37, align 8
  %39 = tail call ptr @stat_tap_get_field_data(ptr noundef %15, i32 noundef 0, i32 noundef 2) #4
  store i32 4, ptr %39, align 8
  %40 = uitofp i32 %35 to double
  %41 = fmul double %40, 1.000000e+02
  %42 = load i64, ptr @componentstatusprotocol_total_msgs, align 8
  %43 = uitofp i64 %42 to double
  %44 = fdiv double %41, %43
  %45 = getelementptr inbounds nuw i8, ptr %39, i64 8
  store double %44, ptr %45, align 8
  tail call void @stat_tap_set_field_data(ptr noundef %15, i32 noundef 0, i32 noundef 2, ptr noundef nonnull %39) #4
  %46 = tail call ptr @stat_tap_get_field_data(ptr noundef %15, i32 noundef 0, i32 noundef 4) #4
  store i32 4, ptr %46, align 8
  %47 = uitofp i32 %38 to double
  %48 = fmul double %47, 1.000000e+02
  %49 = load i64, ptr @componentstatusprotocol_total_bytes, align 8
  %50 = uitofp i64 %49 to double
  %51 = fdiv double %48, %50
  %52 = getelementptr inbounds nuw i8, ptr %46, i64 8
  store double %51, ptr %52, align 8
  tail call void @stat_tap_set_field_data(ptr noundef %15, i32 noundef 0, i32 noundef 4, ptr noundef nonnull %46) #4
  %53 = getelementptr inbounds nuw i8, ptr %1, i64 16
  %54 = load i32, ptr %53, align 8
  %55 = and i32 %54, 1
  %.not107 = icmp eq i32 %55, 0
  br i1 %.not107, label %.thread, label %56

56:                                               ; preds = %10
  %57 = tail call ptr @stat_tap_get_field_data(ptr noundef %15, i32 noundef %8, i32 noundef 5) #4
  store i32 4, ptr %57, align 8
  %58 = getelementptr inbounds nuw i8, ptr %57, i64 8
  %59 = load double, ptr %58, align 8
  %60 = getelementptr inbounds nuw i8, ptr %1, i64 40
  %61 = tail call double @nstime_to_sec(ptr noundef nonnull %60) #4
  %62 = fcmp olt double %59, %61
  br i1 %62, label %63, label %65

63:                                               ; preds = %56
  %64 = load double, ptr %58, align 8
  br label %67

65:                                               ; preds = %56
  %66 = tail call double @nstime_to_sec(ptr noundef nonnull %60) #4
  br label %67

67:                                               ; preds = %63, %65
  %68 = phi double [ %64, %63 ], [ %66, %65 ]
  store double %68, ptr %58, align 8
  tail call void @stat_tap_set_field_data(ptr noundef %15, i32 noundef %8, i32 noundef 5, ptr noundef nonnull %57) #4
  %.pre = load i32, ptr %53, align 8
  %.pre110 = and i32 %.pre, 1
  %69 = icmp eq i32 %.pre110, 0
  br i1 %69, label %.thread, label %70

70:                                               ; preds = %67
  %71 = tail call ptr @stat_tap_get_field_data(ptr noundef %15, i32 noundef %8, i32 noundef 6) #4
  store i32 4, ptr %71, align 8
  %72 = getelementptr inbounds nuw i8, ptr %71, i64 8
  %73 = load double, ptr %72, align 8
  %74 = getelementptr inbounds nuw i8, ptr %1, i64 40
  %75 = tail call double @nstime_to_sec(ptr noundef nonnull %74) #4
  %76 = fcmp ogt double %73, %75
  br i1 %76, label %77, label %79

77:                                               ; preds = %70
  %78 = load double, ptr %72, align 8
  br label %81

79:                                               ; preds = %70
  %80 = tail call double @nstime_to_sec(ptr noundef nonnull %74) #4
  br label %81

81:                                               ; preds = %79, %77
  %82 = phi double [ %78, %77 ], [ %80, %79 ]
  store double %82, ptr %72, align 8
  tail call void @stat_tap_set_field_data(ptr noundef %15, i32 noundef %8, i32 noundef 6, ptr noundef nonnull %71) #4
  br label %.thread

.thread:                                          ; preds = %10, %81, %67
  %.0103113 = phi double [ %68, %81 ], [ %68, %67 ], [ -1.000000e+00, %10 ]
  %.0102 = phi double [ %82, %81 ], [ -1.000000e+00, %67 ], [ -1.000000e+00, %10 ]
  %83 = fsub double %.0102, %.0103113
  %84 = fcmp ogt double %83, 0.000000e+00
  br i1 %84, label %85, label %96

85:                                               ; preds = %.thread
  %86 = tail call ptr @stat_tap_get_field_data(ptr noundef %15, i32 noundef %8, i32 noundef 7) #4
  store i32 4, ptr %86, align 8
  %87 = getelementptr inbounds nuw i8, ptr %86, i64 8
  store double %83, ptr %87, align 8
  tail call void @stat_tap_set_field_data(ptr noundef %15, i32 noundef %8, i32 noundef 7, ptr noundef nonnull %86) #4
  %88 = tail call ptr @stat_tap_get_field_data(ptr noundef %15, i32 noundef %8, i32 noundef 8) #4
  store i32 4, ptr %88, align 8
  %89 = uitofp i32 %21 to double
  %90 = fdiv double %89, %83
  %91 = getelementptr inbounds nuw i8, ptr %88, i64 8
  store double %90, ptr %91, align 8
  tail call void @stat_tap_set_field_data(ptr noundef %15, i32 noundef %8, i32 noundef 8, ptr noundef nonnull %88) #4
  %92 = tail call ptr @stat_tap_get_field_data(ptr noundef %15, i32 noundef %8, i32 noundef 9) #4
  store i32 4, ptr %92, align 8
  %93 = uitofp i32 %32 to double
  %94 = fdiv double %93, %83
  %95 = getelementptr inbounds nuw i8, ptr %92, i64 8
  store double %94, ptr %95, align 8
  tail call void @stat_tap_set_field_data(ptr noundef %15, i32 noundef %8, i32 noundef 9, ptr noundef nonnull %92) #4
  br label %96

96:                                               ; preds = %.thread, %85, %5
  %.0 = phi i32 [ 0, %5 ], [ 1, %85 ], [ 1, %.thread ]
  ret i32 %.0
}